; Function Attrs: nounwind uwtable
define dso_local ptr @callReplyGetString(ptr noundef %0, ptr noundef writeonly captures(address_is_null) %1) local_unnamed_addr #0 {
  %3 = alloca %struct.ReplyParser, align 8
  %4 = getelementptr inbounds nuw i8, ptr %0, i64 36
  %5 = load i32, ptr %4, align 4, !tbaa !5
  %6 = and i32 %5, 2
  %.not.i = icmp eq i32 %6, 0
  br i1 %.not.i, label %7, label %callReplyParse.exit

7:                                                ; preds = %2
  call void @llvm.lifetime.start.p0(i64 136, ptr nonnull %3) #8
  %8 = getelementptr inbounds nuw i8, ptr %0, i64 16
  %9 = load ptr, ptr %8, align 8, !tbaa !25
  store ptr %9, ptr %3, align 8, !tbaa !26
  %10 = getelementptr inbounds nuw i8, ptr %3, i64 8
  call void @llvm.memcpy.p0.p0.i64(ptr noundef nonnull align 8 dereferenceable(128) %10, ptr noundef nonnull align 8 dereferenceable(128) @DefaultParserCallbacks, i64 128, i1 false), !tbaa.struct !29
  %11 = call i32 @parseReply(ptr noundef nonnull %3, ptr noundef nonnull %0) #8
  %12 = load i32, ptr %4, align 4, !tbaa !5
  %13 = or i32 %12, 2
  store i32 %13, ptr %4, align 4, !tbaa !5
  call void @llvm.lifetime.end.p0(i64 136, ptr nonnull %3) #8
  br label %callReplyParse.exit

callReplyParse.exit:                              ; preds = %2, %7
  %14 = getelementptr inbounds nuw i8, ptr %0, i64 32
  %15 = load i32, ptr %14, align 8, !tbaa !15
  %switch = icmp ult i32 %15, 2
  br i1 %switch, label %16, label %23

16:                                               ; preds = %callReplyParse.exit
  %.not11 = icmp eq ptr %1, null
  br i1 %.not11, label %20, label %17

17:                                               ; preds = %16
  %18 = getelementptr inbounds nuw i8, ptr %0, i64 40
  %19 = load i64, ptr %18, align 8, !tbaa !18
  store i64 %19, ptr %1, align 8, !tbaa !31
  br label %20

20:                                               ; preds = %17, %16
  %21 = getelementptr inbounds nuw i8, ptr %0, i64 48
  %22 = load ptr, ptr %21, align 8, !tbaa !19
  br label %23

23:                                               ; preds = %callReplyParse.exit, %20
  %.0 = phi ptr [ %22, %20 ], [ null, %callReplyParse.exit ]
  ret ptr %.0
}